target datalayout = "e-m:e-p270:32:32-p271:32:32-p272:64:64-i64:64-i128:128-f80:128-n8:16:32:64-S128"
target triple = "x86_64-pc-linux-gnu"

%struct.FLAC__BitReader = type { ptr, i32, i32, i32, i32, i32, i32, i32, i32, i32, i32, i32, ptr, ptr }

; Function Attrs: nounwind sspstrong uwtable
define hidden void @FLAC__bitreader_set_framesync_location(ptr noundef %0) #0 {
  %2 = alloca ptr, align 8
  store ptr %0, ptr %2, align 8, !tbaa !3
  %3 = load ptr, ptr %2, align 8, !tbaa !3
  %4 = getelementptr inbounds nuw %struct.FLAC__BitReader, ptr %3, i32 0, i32 4
  %5 = load i32, ptr %4, align 4, !tbaa !16
  %6 = mul i32 %5, 8
  %7 = load ptr, ptr %2, align 8, !tbaa !3
  %8 = getelementptr inbounds nuw %struct.FLAC__BitReader, ptr %7, i32 0, i32 5
  %9 = load i32, ptr %8, align 8, !tbaa !15
  %10 = udiv i32 %9, 8
  %11 = add i32 %6, %10
  %12 = load ptr, ptr %2, align 8, !tbaa !3
  %13 = getelementptr inbounds nuw %struct.FLAC__BitReader, ptr %12, i32 0, i32 11
  store i32 %11, ptr %13, align 8, !tbaa !21
  ret void
}