; Function Attrs: mustprogress nofree norecurse nosync nounwind sspstrong willreturn memory(argmem: readwrite) uwtable
define hidden void @FLAC__bitreader_set_framesync_location(ptr noundef captures(none) initializes((48, 52)) %0) local_unnamed_addr #8 {
  %2 = getelementptr inbounds nuw i8, ptr %0, i64 20
  %3 = load i32, ptr %2, align 4, !tbaa !16
  %4 = shl i32 %3, 3
  %5 = getelementptr inbounds nuw i8, ptr %0, i64 24
  %6 = load i32, ptr %5, align 8, !tbaa !17
  %7 = lshr i32 %6, 3
  %8 = add i32 %7, %4
  %9 = getelementptr inbounds nuw i8, ptr %0, i64 48
  store i32 %8, ptr %9, align 8, !tbaa !12
  ret void
}